target datalayout = "e-m:e-p270:32:32-p271:32:32-p272:64:64-i64:64-i128:128-f80:128-n8:16:32:64-S128"
target triple = "x86_64-unknown-linux-gnu"

%struct.UResourceBundle = type { ptr, ptr, ptr, ptr, ptr, [64 x i8], i32, i32, i8, i8, i32, i32, i32, i32 }
%"class.icu_75::ResourceTracer" = type { i8 }

@.str.15 = private unnamed_addr constant [4 x i8] c"int\00", align 1

; Function Attrs: mustprogress nounwind uwtable
define linkonce_odr void @_ZNK6icu_7514ResourceTracer5traceEPKc(ptr noundef nonnull align 1 dereferenceable(1) %this, ptr noundef %0) #0 comdat align 2 {
entry:
  %this.addr = alloca ptr, align 8
  %.addr = alloca ptr, align 8
  store ptr %this, ptr %this.addr, align 8
  store ptr %0, ptr %.addr, align 8
  ret void
}

; Function Attrs: mustprogress nounwind uwtable
define linkonce_odr noundef i32 @_ZN6icu_7510res_getIntERKNS_14ResourceTracerEj(ptr noundef nonnull align 1 dereferenceable(1) %traceInfo, i32 noundef %res) #0 comdat {
entry:
  %traceInfo.addr = alloca ptr, align 8
  %res.addr = alloca i32, align 4
  store ptr %traceInfo, ptr %traceInfo.addr, align 8
  store i32 %res, ptr %res.addr, align 4
  %0 = load ptr, ptr %traceInfo.addr, align 8
  call void @_ZNK6icu_7514ResourceTracer5traceEPKc(ptr noundef nonnull align 1 dereferenceable(1) %0, ptr noundef @.str.15)
  %1 = load i32, ptr %res.addr, align 4
  %shl = shl i32 %1, 4
  %shr = ashr i32 %shl, 4
  ret i32 %shr
}

; Function Attrs: mustprogress nounwind uwtable
define linkonce_odr void @_ZN6icu_7514ResourceTracerC2EPKv(ptr noundef nonnull align 1 dereferenceable(1) %this, ptr noundef %0) unnamed_addr #0 comdat align 2 {
entry:
  %this.addr = alloca ptr, align 8
  %.addr = alloca ptr, align 8
  store ptr %this, ptr %this.addr, align 8
  store ptr %0, ptr %.addr, align 8
  ret void
}

; Function Attrs: mustprogress nounwind uwtable
define internal noundef signext i8 @_ZL9U_FAILURE10UErrorCode(i32 noundef %code) #0 {
entry:
  %code.addr = alloca i32, align 4
  store i32 %code, ptr %code.addr, align 4
  %0 = load i32, ptr %code.addr, align 4
  %cmp = icmp sgt i32 %0, 0
  %conv = zext i1 %cmp to i8
  ret i8 %conv
}

; Function Attrs: mustprogress uwtable
define i32 @ures_getInt_75(ptr noundef %resB, ptr noundef %status) #1 {
entry:
  %retval = alloca i32, align 4
  %resB.addr = alloca ptr, align 8
  %status.addr = alloca ptr, align 8
  %ref.tmp = alloca %"class.icu_75::ResourceTracer", align 1
  store ptr %resB, ptr %resB.addr, align 8
  store ptr %status, ptr %status.addr, align 8
  %0 = load ptr, ptr %status.addr, align 8
  %cmp = icmp eq ptr %0, null
  br i1 %cmp, label %if.then, label %lor.lhs.false

lor.lhs.false:                                    ; preds = %entry
  %1 = load ptr, ptr %status.addr, align 8
  %2 = load i32, ptr %1, align 4
  %call = call noundef signext i8 @_ZL9U_FAILURE10UErrorCode(i32 noundef %2)
  %tobool = icmp ne i8 %call, 0
  br i1 %tobool, label %if.then, label %if.end

if.then:                                          ; preds = %lor.lhs.false, %entry
  store i32 -1, ptr %retval, align 4
  br label %return

if.end:                                           ; preds = %lor.lhs.false
  %3 = load ptr, ptr %resB.addr, align 8
  %cmp1 = icmp eq ptr %3, null
  br i1 %cmp1, label %if.then2, label %if.end3

if.then2:                                         ; preds = %if.end
  %4 = load ptr, ptr %status.addr, align 8
  store i32 1, ptr %4, align 4
  store i32 -1, ptr %retval, align 4
  br label %return

if.end3:                                          ; preds = %if.end
  %5 = load ptr, ptr %resB.addr, align 8
  %fRes = getelementptr inbounds %struct.UResourceBundle, ptr %5, i32 0, i32 7
  %6 = load i32, ptr %fRes, align 4
  %shr = lshr i32 %6, 28
  %cmp4 = icmp ne i32 %shr, 7
  br i1 %cmp4, label %if.then5, label %if.end6

if.then5:                                         ; preds = %if.end3
  %7 = load ptr, ptr %status.addr, align 8
  store i32 17, ptr %7, align 4
  store i32 -1, ptr %retval, align 4
  br label %return

if.end6:                                          ; preds = %if.end3
  %8 = load ptr, ptr %resB.addr, align 8
  call void @_ZN6icu_7514ResourceTracerC2EPKv(ptr noundef nonnull align 1 dereferenceable(1) %ref.tmp, ptr noundef %8)
  %9 = load ptr, ptr %resB.addr, align 8
  %fRes7 = getelementptr inbounds %struct.UResourceBundle, ptr %9, i32 0, i32 7
  %10 = load i32, ptr %fRes7, align 4
  %call8 = call noundef i32 @_ZN6icu_7510res_getIntERKNS_14ResourceTracerEj(ptr noundef nonnull align 1 dereferenceable(1) %ref.tmp, i32 noundef %10)
  store i32 %call8, ptr %retval, align 4
  br label %return

return:                                           ; preds = %if.end6, %if.then5, %if.then2, %if.then
  %11 = load i32, ptr %retval, align 4
  ret i32 %11
}