; Function Attrs: mustprogress nofree norecurse nosync nounwind willreturn memory(argmem: readwrite) uwtable
define i32 @ures_getInt_75(ptr noundef readonly %resB, ptr noundef %status) local_unnamed_addr #8 {
entry:
  %cmp = icmp eq ptr %status, null
  br i1 %cmp, label %return, label %lor.lhs.false

lor.lhs.false:                                    ; preds = %entry
  %0 = load i32, ptr %status, align 4
  %cmp.i = icmp slt i32 %0, 1
  br i1 %cmp.i, label %if.end, label %return

if.end:                                           ; preds = %lor.lhs.false
  %cmp1 = icmp eq ptr %resB, null
  br i1 %cmp1, label %if.then2, label %if.end3

if.then2:                                         ; preds = %if.end
  store i32 1, ptr %status, align 4
  br label %return

if.end3:                                          ; preds = %if.end
  %fRes = getelementptr inbounds i8, ptr %resB, i64 108
  %1 = load i32, ptr %fRes, align 4
  %shr.mask = and i32 %1, -268435456
  %cmp4.not = icmp eq i32 %shr.mask, 1879048192
  br i1 %cmp4.not, label %if.end6, label %if.then5

if.then5:                                         ; preds = %if.end3
  store i32 17, ptr %status, align 4
  br label %return

if.end6:                                          ; preds = %if.end3
  %shl.i = shl i32 %1, 4
  %shr.i = ashr exact i32 %shl.i, 4
  br label %return

return:                                           ; preds = %entry, %lor.lhs.false, %if.end6, %if.then5, %if.then2
  %retval.0 = phi i32 [ -1, %if.then2 ], [ -1, %if.then5 ], [ %shr.i, %if.end6 ], [ -1, %lor.lhs.false ], [ -1, %entry ]
  ret i32 %retval.0
}